target datalayout = "e-m:e-p270:32:32-p271:32:32-p272:64:64-i64:64-i128:128-f80:128-n8:16:32:64-S128"
target triple = "x86_64-pc-linux-gnu"

%"class.llvm::StringRef" = type { ptr, i64 }
%"class.llvm::MDTupleTypedArrayWrapper.168" = type { ptr }
%"class.llvm::ArrayRef.271" = type { ptr, i64 }

; Function Attrs: mustprogress nounwind uwtable
define linkonce_odr hidden noundef ptr @_ZN4llvm16cast_convert_valINS_6MDNodeEPNS_8MetadataES3_E4doitEPKS2_(ptr noundef %0) #0 comdat align 2 {
  %2 = alloca ptr, align 8
  store ptr %0, ptr %2, align 8
  %3 = load ptr, ptr %2, align 8
  ret ptr %3
}

; Function Attrs: mustprogress nounwind uwtable
define linkonce_odr hidden noundef ptr @_ZN4llvm8CastInfoINS_6MDNodeEPNS_8MetadataEvE6doCastERKS3_(ptr noundef nonnull align 8 dereferenceable(8) %0) #0 comdat align 2 {
  %2 = alloca ptr, align 8
  store ptr %0, ptr %2, align 8
  %3 = load ptr, ptr %2, align 8
  %4 = load ptr, ptr %3, align 8
  %5 = call noundef ptr @_ZN4llvm16cast_convert_valINS_6MDNodeEPNS_8MetadataES3_E4doitEPKS2_(ptr noundef %4)
  ret ptr %5
}

; Function Attrs: mustprogress nounwind uwtable
define linkonce_odr hidden noundef ptr @_ZN4llvm4castINS_6MDNodeENS_8MetadataEEEDcPT0_(ptr noundef %0) #0 comdat {
  %2 = alloca ptr, align 8
  store ptr %0, ptr %2, align 8
  %3 = call noundef ptr @_ZN4llvm8CastInfoINS_6MDNodeEPNS_8MetadataEvE6doCastERKS3_(ptr noundef nonnull align 8 dereferenceable(8) %2)
  ret ptr %3
}

; Function Attrs: mustprogress nounwind uwtable
define linkonce_odr hidden noundef ptr @_ZN4llvm6unwrapEP18LLVMOpaqueMetadata(ptr noundef %0) #0 comdat {
  %2 = alloca ptr, align 8
  store ptr %0, ptr %2, align 8
  %3 = load ptr, ptr %2, align 8
  ret ptr %3
}

; Function Attrs: mustprogress nounwind uwtable
define linkonce_odr hidden noundef ptr @_ZN4llvm6unwrapINS_6MDNodeEEEPT_P18LLVMOpaqueMetadata(ptr noundef %0) #0 comdat {
  %2 = alloca ptr, align 8
  store ptr %0, ptr %2, align 8
  %3 = load ptr, ptr %2, align 8
  %4 = call noundef ptr @_ZN4llvm6unwrapEP18LLVMOpaqueMetadata(ptr noundef %3)
  %5 = call noundef ptr @_ZN4llvm4castINS_6MDNodeENS_8MetadataEEEDcPT0_(ptr noundef %4)
  ret ptr %5
}

; Function Attrs: mustprogress nounwind uwtable
define linkonce_odr hidden noundef ptr @_ZN4llvm4wrapEPKNS_8MetadataE(ptr noundef %0) #0 comdat {
  %2 = alloca ptr, align 8
  store ptr %0, ptr %2, align 8
  %3 = load ptr, ptr %2, align 8
  ret ptr %3
}

; Function Attrs: mustprogress nounwind uwtable
define linkonce_odr hidden void @_ZN4llvm9StringRefC2EPKcm(ptr noundef nonnull align 8 dereferenceable(16) %0, ptr noundef %1, i64 noundef %2) unnamed_addr #0 comdat align 2 {
  %4 = alloca ptr, align 8
  %5 = alloca ptr, align 8
  %6 = alloca i64, align 8
  store ptr %0, ptr %4, align 8
  store ptr %1, ptr %5, align 8
  store i64 %2, ptr %6, align 8
  %7 = load ptr, ptr %4, align 8
  %8 = getelementptr inbounds nuw %"class.llvm::StringRef", ptr %7, i32 0, i32 0
  %9 = load ptr, ptr %5, align 8
  store ptr %9, ptr %8, align 8
  %10 = getelementptr inbounds nuw %"class.llvm::StringRef", ptr %7, i32 0, i32 1
  %11 = load i64, ptr %6, align 8
  store i64 %11, ptr %10, align 8
  ret void
}

; Function Attrs: mustprogress nounwind uwtable
define linkonce_odr noundef ptr @_Z8unwrapDIIN4llvm6DIFileEEPT_P18LLVMOpaqueMetadata(ptr noundef %0) #0 comdat {
  %2 = alloca ptr, align 8
  store ptr %0, ptr %2, align 8
  %3 = load ptr, ptr %2, align 8
  %4 = icmp ne ptr %3, null
  br i1 %4, label %5, label %8

5:                                                ; preds = %1
  %6 = load ptr, ptr %2, align 8
  %7 = call noundef ptr @_ZN4llvm6unwrapINS_6MDNodeEEEPT_P18LLVMOpaqueMetadata(ptr noundef %6)
  br label %9

8:                                                ; preds = %1
  br label %9

9:                                                ; preds = %8, %5
  %10 = phi ptr [ %7, %5 ], [ null, %8 ]
  ret ptr %10
}

; Function Attrs: mustprogress nounwind uwtable
define linkonce_odr noundef ptr @_Z8unwrapDIIN4llvm6DINodeEEPT_P18LLVMOpaqueMetadata(ptr noundef %0) #0 comdat {
  %2 = alloca ptr, align 8
  store ptr %0, ptr %2, align 8
  %3 = load ptr, ptr %2, align 8
  %4 = icmp ne ptr %3, null
  br i1 %4, label %5, label %8

5:                                                ; preds = %1
  %6 = load ptr, ptr %2, align 8
  %7 = call noundef ptr @_ZN4llvm6unwrapINS_6MDNodeEEEPT_P18LLVMOpaqueMetadata(ptr noundef %6)
  br label %9

8:                                                ; preds = %1
  br label %9

9:                                                ; preds = %8, %5
  %10 = phi ptr [ %7, %5 ], [ null, %8 ]
  ret ptr %10
}

; Function Attrs: mustprogress nounwind uwtable
define linkonce_odr noundef ptr @_Z8unwrapDIIN4llvm7DIScopeEEPT_P18LLVMOpaqueMetadata(ptr noundef %0) #0 comdat {
  %2 = alloca ptr, align 8
  store ptr %0, ptr %2, align 8
  %3 = load ptr, ptr %2, align 8
  %4 = icmp ne ptr %3, null
  br i1 %4, label %5, label %8

5:                                                ; preds = %1
  %6 = load ptr, ptr %2, align 8
  %7 = call noundef ptr @_ZN4llvm6unwrapINS_6MDNodeEEEPT_P18LLVMOpaqueMetadata(ptr noundef %6)
  br label %9

8:                                                ; preds = %1
  br label %9

9:                                                ; preds = %8, %5
  %10 = phi ptr [ %7, %5 ], [ null, %8 ]
  ret ptr %10
}

; Function Attrs: mustprogress nounwind uwtable
define linkonce_odr hidden void @_ZN4llvm24MDTupleTypedArrayWrapperINS_6DINodeEEC2EPKNS_7MDTupleE(ptr noundef nonnull align 8 dereferenceable(8) %0, ptr noundef %1) unnamed_addr #0 comdat align 2 {
  %3 = alloca ptr, align 8
  %4 = alloca ptr, align 8
  store ptr %0, ptr %3, align 8
  store ptr %1, ptr %4, align 8
  %5 = load ptr, ptr %3, align 8
  %6 = getelementptr inbounds nuw %"class.llvm::MDTupleTypedArrayWrapper.168", ptr %5, i32 0, i32 0
  %7 = load ptr, ptr %4, align 8
  store ptr %7, ptr %6, align 8
  ret void
}

; Function Attrs: mustprogress nounwind uwtable
define linkonce_odr hidden void @_ZN4llvm8ArrayRefIPNS_8MetadataEEC2EPKS2_m(ptr noundef nonnull align 8 dereferenceable(16) %0, ptr noundef %1, i64 noundef %2) unnamed_addr #0 comdat align 2 {
  %4 = alloca ptr, align 8
  %5 = alloca ptr, align 8
  %6 = alloca i64, align 8
  store ptr %0, ptr %4, align 8
  store ptr %1, ptr %5, align 8
  store i64 %2, ptr %6, align 8
  %7 = load ptr, ptr %4, align 8
  %8 = getelementptr inbounds nuw %"class.llvm::ArrayRef.271", ptr %7, i32 0, i32 0
  %9 = load ptr, ptr %5, align 8
  store ptr %9, ptr %8, align 8
  %10 = getelementptr inbounds nuw %"class.llvm::ArrayRef.271", ptr %7, i32 0, i32 1
  %11 = load i64, ptr %6, align 8
  store i64 %11, ptr %10, align 8
  ret void
}

; Function Attrs: mustprogress nounwind uwtable
define linkonce_odr hidden noundef ptr @_ZN4llvm6unwrapEPP18LLVMOpaqueMetadata(ptr noundef %0) #0 comdat {
  %2 = alloca ptr, align 8
  store ptr %0, ptr %2, align 8
  %3 = load ptr, ptr %2, align 8
  ret ptr %3
}

; Function Attrs: mustprogress nounwind uwtable
define linkonce_odr hidden noundef ptr @_ZN4llvm6unwrapEP19LLVMOpaqueDIBuilder(ptr noundef %0) #0 comdat {
  %2 = alloca ptr, align 8
  store ptr %0, ptr %2, align 8
  %3 = load ptr, ptr %2, align 8
  ret ptr %3
}

; Function Attrs: mustprogress nounwind uwtable
define dso_local ptr @LLVMDIBuilderCreateImportedDeclaration(ptr noundef %0, ptr noundef %1, ptr noundef %2, ptr noundef %3, i32 noundef %4, ptr noundef %5, i64 noundef %6, ptr noundef %7, i32 noundef %8) #0 {
  %10 = alloca ptr, align 8
  %11 = alloca ptr, align 8
  %12 = alloca ptr, align 8
  %13 = alloca ptr, align 8
  %14 = alloca i32, align 4
  %15 = alloca ptr, align 8
  %16 = alloca i64, align 8
  %17 = alloca ptr, align 8
  %18 = alloca i32, align 4
  %19 = alloca %"class.llvm::MDTupleTypedArrayWrapper.168", align 8
  %20 = alloca %"class.llvm::ArrayRef.271", align 8
  %21 = alloca %"class.llvm::StringRef", align 8
  %22 = alloca %"class.llvm::MDTupleTypedArrayWrapper.168", align 8
  store ptr %0, ptr %10, align 8
  store ptr %1, ptr %11, align 8
  store ptr %2, ptr %12, align 8
  store ptr %3, ptr %13, align 8
  store i32 %4, ptr %14, align 4
  store ptr %5, ptr %15, align 8
  store i64 %6, ptr %16, align 8
  store ptr %7, ptr %17, align 8
  store i32 %8, ptr %18, align 4
  %23 = load i32, ptr %18, align 4
  %24 = icmp ugt i32 %23, 0
  br i1 %24, label %25, label %38

25:                                               ; preds = %9
  %26 = load ptr, ptr %10, align 8
  %27 = call noundef ptr @_ZN4llvm6unwrapEP19LLVMOpaqueDIBuilder(ptr noundef %26)
  %28 = load ptr, ptr %17, align 8
  %29 = call noundef ptr @_ZN4llvm6unwrapEPP18LLVMOpaqueMetadata(ptr noundef %28)
  %30 = load i32, ptr %18, align 4
  %31 = zext i32 %30 to i64
  call void @_ZN4llvm8ArrayRefIPNS_8MetadataEEC2EPKS2_m(ptr noundef nonnull align 8 dereferenceable(16) %20, ptr noundef %29, i64 noundef %31)
  %32 = getelementptr inbounds nuw { ptr, i64 }, ptr %20, i32 0, i32 0
  %33 = load ptr, ptr %32, align 8
  %34 = getelementptr inbounds nuw { ptr, i64 }, ptr %20, i32 0, i32 1
  %35 = load i64, ptr %34, align 8
  %36 = call ptr @_ZN4llvm9DIBuilder16getOrCreateArrayENS_8ArrayRefIPNS_8MetadataEEE(ptr noundef nonnull align 8 dereferenceable(416) %27, ptr %33, i64 %35)
  %37 = getelementptr inbounds nuw %"class.llvm::MDTupleTypedArrayWrapper.168", ptr %19, i32 0, i32 0
  store ptr %36, ptr %37, align 8
  br label %39

38:                                               ; preds = %9
  call void @_ZN4llvm24MDTupleTypedArrayWrapperINS_6DINodeEEC2EPKNS_7MDTupleE(ptr noundef nonnull align 8 dereferenceable(8) %19, ptr noundef null)
  br label %39

39:                                               ; preds = %38, %25
  %40 = load ptr, ptr %10, align 8
  %41 = call noundef ptr @_ZN4llvm6unwrapEP19LLVMOpaqueDIBuilder(ptr noundef %40)
  %42 = load ptr, ptr %11, align 8
  %43 = call noundef ptr @_Z8unwrapDIIN4llvm7DIScopeEEPT_P18LLVMOpaqueMetadata(ptr noundef %42)
  %44 = load ptr, ptr %12, align 8
  %45 = call noundef ptr @_Z8unwrapDIIN4llvm6DINodeEEPT_P18LLVMOpaqueMetadata(ptr noundef %44)
  %46 = load ptr, ptr %13, align 8
  %47 = call noundef ptr @_Z8unwrapDIIN4llvm6DIFileEEPT_P18LLVMOpaqueMetadata(ptr noundef %46)
  %48 = load i32, ptr %14, align 4
  %49 = load ptr, ptr %15, align 8
  %50 = load i64, ptr %16, align 8
  call void @_ZN4llvm9StringRefC2EPKcm(ptr noundef nonnull align 8 dereferenceable(16) %21, ptr noundef %49, i64 noundef %50)
  call void @llvm.memcpy.p0.p0.i64(ptr align 8 %22, ptr align 8 %19, i64 8, i1 false)
  %51 = getelementptr inbounds nuw %"class.llvm::MDTupleTypedArrayWrapper.168", ptr %22, i32 0, i32 0
  %52 = load ptr, ptr %51, align 8
  %53 = call noundef ptr @_ZN4llvm9DIBuilder25createImportedDeclarationEPNS_7DIScopeEPNS_6DINodeEPNS_6DIFileEjNS_9StringRefENS_24MDTupleTypedArrayWrapperIS3_EE(ptr noundef nonnull align 8 dereferenceable(416) %41, ptr noundef %43, ptr noundef %45, ptr noundef %47, i32 noundef %48, ptr noundef byval(%"class.llvm::StringRef") align 8 %21, ptr %52)
  %54 = call noundef ptr @_ZN4llvm4wrapEPKNS_8MetadataE(ptr noundef %53)
  ret ptr %54
}