; Function Attrs: mustprogress nounwind uwtable
define dso_local noundef ptr @LLVMDIBuilderCreateImportedDeclaration(ptr noundef %0, ptr noundef %1, ptr noundef %2, ptr noundef %3, i32 noundef %4, ptr noundef %5, i64 noundef %6, ptr noundef %7, i32 noundef %8) local_unnamed_addr #0 {
  %10 = alloca %"class.llvm::StringRef", align 8
  %.not = icmp eq i32 %8, 0
  br i1 %.not, label %14, label %11

11:                                               ; preds = %9
  %12 = zext i32 %8 to i64
  %13 = tail call ptr @_ZN4llvm9DIBuilder16getOrCreateArrayENS_8ArrayRefIPNS_8MetadataEEE(ptr noundef nonnull align 8 dereferenceable(416) %0, ptr %7, i64 %12) #15
  br label %14

14:                                               ; preds = %9, %11
  %.sroa.010.0 = phi ptr [ %13, %11 ], [ null, %9 ]
  store ptr %5, ptr %10, align 8
  %15 = getelementptr inbounds nuw i8, ptr %10, i64 8
  store i64 %6, ptr %15, align 8
  %16 = tail call noundef ptr @_ZN4llvm9DIBuilder25createImportedDeclarationEPNS_7DIScopeEPNS_6DINodeEPNS_6DIFileEjNS_9StringRefENS_24MDTupleTypedArrayWrapperIS3_EE(ptr noundef nonnull align 8 dereferenceable(416) %0, ptr noundef %1, ptr noundef %2, ptr noundef %3, i32 noundef %4, ptr noundef nonnull byval(%"class.llvm::StringRef") align 8 %10, ptr %.sroa.010.0) #15
  ret ptr %16
}